target datalayout = "e-m:e-p270:32:32-p271:32:32-p272:64:64-i64:64-i128:128-f80:128-n8:16:32:64-S128"
target triple = "x86_64-pc-linux-gnu"

%struct.t_deffile = type { i32, ptr, ptr, ptr, ptr, i32, ptr }

; Function Attrs: mustprogress nounwind uwtable
define noundef zeroext i1 @_Z10ftp_is_xdri(i32 noundef %0) #0 {
  %2 = alloca i1, align 1
  %3 = alloca i32, align 4
  store i32 %0, ptr %3, align 4, !tbaa !4
  %4 = load i32, ptr %3, align 4, !tbaa !4
  %5 = icmp sge i32 %4, 0
  br i1 %5, label %6, label %16

6:                                                ; preds = %1
  %7 = load i32, ptr %3, align 4, !tbaa !4
  %8 = icmp slt i32 %7, 44
  br i1 %8, label %9, label %16

9:                                                ; preds = %6
  %10 = load i32, ptr %3, align 4, !tbaa !4
  %11 = sext i32 %10 to i64
  %12 = getelementptr inbounds [44 x %struct.t_deffile], ptr @_ZL7deffile, i64 0, i64 %11
  %13 = getelementptr inbounds nuw %struct.t_deffile, ptr %12, i32 0, i32 0
  %14 = load i32, ptr %13, align 8, !tbaa !17
  %15 = icmp eq i32 %14, 1
  store i1 %15, ptr %2, align 1
  br label %17

16:                                               ; preds = %6, %1
  store i1 false, ptr %2, align 1
  br label %17

17:                                               ; preds = %16, %9
  %18 = load i1, ptr %2, align 1
  ret i1 %18
}