; Function Attrs: mustprogress nofree norecurse nosync nounwind willreturn memory(none) uwtable
define noundef zeroext i1 @_Z10ftp_is_xdri(i32 noundef %0) local_unnamed_addr #1 {
  %or.cond = icmp ult i32 %0, 44
  br i1 %or.cond, label %2, label %7

2:                                                ; preds = %1
  %3 = zext nneg i32 %0 to i64
  %4 = getelementptr inbounds nuw [44 x %struct.t_deffile], ptr @_ZL7deffile, i64 0, i64 %3
  %5 = load i32, ptr %4, align 8, !tbaa !16
  %6 = icmp eq i32 %5, 1
  br label %7

7:                                                ; preds = %1, %2
  %.0 = phi i1 [ %6, %2 ], [ false, %1 ]
  ret i1 %.0
}